; Function Attrs: nounwind uwtable
define range(i32 -173, 1) i32 @wolfSSL_CondWait(ptr noundef %0) local_unnamed_addr #2 {
  %2 = icmp eq ptr %0, null
  br i1 %2, label %6, label %3

3:                                                ; preds = %1
  %4 = getelementptr inbounds nuw i8, ptr %0, i64 40
  %5 = tail call i32 @pthread_cond_wait(ptr noundef nonnull %4, ptr noundef nonnull %0) #16
  %.not = icmp eq i32 %5, 0
  %. = select i1 %.not, i32 0, i32 -125
  br label %6

6:                                                ; preds = %3, %1
  %.0 = phi i32 [ -173, %1 ], [ %., %3 ]
  ret i32 %.0
}